; Function Attrs: nofree norecurse nosync nounwind memory(read, inaccessiblemem: none) uwtable
define i32 @Dch_DeriveChoiceCountEquivs(ptr noundef readonly captures(none) %0) local_unnamed_addr #3 {
  %2 = getelementptr inbounds nuw i8, ptr %0, i64 32
  %3 = load ptr, ptr %2, align 8
  %4 = getelementptr i8, ptr %3, i64 4
  %.val = load i32, ptr %4, align 4
  %5 = icmp sgt i32 %.val, 0
  br i1 %5, label %.lr.ph, label %.critedge

.lr.ph:                                           ; preds = %1
  %6 = getelementptr i8, ptr %3, i64 8
  %.val12 = load ptr, ptr %6, align 8
  %7 = getelementptr i8, ptr %0, i64 248
  %wide.trip.count = zext nneg i32 %.val to i64
  br label %8

8:                                                ; preds = %.lr.ph, %21
  %indvars.iv = phi i64 [ 0, %.lr.ph ], [ %indvars.iv.next, %21 ]
  %.015 = phi i32 [ 0, %.lr.ph ], [ %.1, %21 ]
  %9 = getelementptr inbounds nuw ptr, ptr %.val12, i64 %indvars.iv
  %10 = load ptr, ptr %9, align 8
  %11 = icmp eq ptr %10, null
  br i1 %11, label %21, label %12

12:                                               ; preds = %8
  %.val13 = load ptr, ptr %7, align 8
  %.not.i = icmp eq ptr %.val13, null
  br i1 %.not.i, label %Aig_ObjEquiv.exit, label %13

13:                                               ; preds = %12
  %14 = getelementptr inbounds nuw i8, ptr %10, i64 36
  %15 = load i32, ptr %14, align 4
  %16 = sext i32 %15 to i64
  %17 = getelementptr inbounds ptr, ptr %.val13, i64 %16
  %18 = load ptr, ptr %17, align 8
  %19 = icmp ne ptr %18, null
  %20 = zext i1 %19 to i32
  br label %Aig_ObjEquiv.exit

Aig_ObjEquiv.exit:                                ; preds = %12, %13
  %not. = phi i32 [ %20, %13 ], [ 0, %12 ]
  %spec.select = add nsw i32 %not., %.015
  br label %21

21:                                               ; preds = %Aig_ObjEquiv.exit, %8
  %.1 = phi i32 [ %.015, %8 ], [ %spec.select, %Aig_ObjEquiv.exit ]
  %indvars.iv.next = add nuw nsw i64 %indvars.iv, 1
  %exitcond.not = icmp eq i64 %indvars.iv.next, %wide.trip.count
  br i1 %exitcond.not, label %.critedge, label %8, !llvm.loop !6

.critedge:                                        ; preds = %21, %1
  %.0.lcssa = phi i32 [ 0, %1 ], [ %.1, %21 ]
  ret i32 %.0.lcssa
}